; ModuleID = '19/1186.c'
source_filename = "19/1186.c"
target datalayout = "e-m:e-p270:32:32-p271:32:32-p272:64:64-i64:64-f80:128-n8:16:32:64-S128"
target triple = "x86_64-pc-linux-gnu"

@.str = private unnamed_addr constant [3 x i8] c"%s\00", align 1
@.str.1 = private unnamed_addr constant [2 x i8] c" \00", align 1

; Function Attrs: noinline nounwind uwtable
define dso_local void @main() #0 {
  %1 = alloca [100 x i8*], align 16
  %2 = alloca i8*, align 8
  %3 = alloca i8*, align 8
  %4 = alloca i8, align 1
  %5 = alloca i32, align 4
  %6 = alloca i32, align 4
  %7 = alloca i32, align 4
  %8 = alloca i32, align 4
  store i32 0, i32* %5, align 4
  br label %9

9:                                                ; preds = %17, %0
  %10 = load i32, i32* %5, align 4
  %11 = icmp sle i32 %10, 100
  br i1 %11, label %12, label %20

12:                                               ; preds = %9
  %13 = call noalias i8* @malloc(i64 100) #4
  %14 = load i32, i32* %5, align 4
  %15 = sext i32 %14 to i64
  %16 = getelementptr inbounds [100 x i8*], [100 x i8*]* %1, i64 0, i64 %15
  store i8* %13, i8** %16, align 8
  br label %17

17:                                               ; preds = %12
  %18 = load i32, i32* %5, align 4
  %19 = add nsw i32 %18, 1
  store i32 %19, i32* %5, align 4
  br label %9

20:                                               ; preds = %9
  store i32 0, i32* %5, align 4
  store i32 0, i32* %6, align 4
  br label %21

21:                                               ; preds = %35, %20
  %22 = load i32, i32* %5, align 4
  %23 = sext i32 %22 to i64
  %24 = getelementptr inbounds [100 x i8*], [100 x i8*]* %1, i64 0, i64 %23
  %25 = load i8*, i8** %24, align 8
  %26 = call i32 (i8*, ...) @__isoc99_scanf(i8* getelementptr inbounds ([3 x i8], [3 x i8]* @.str, i64 0, i64 0), i8* %25)
  %27 = load i32, i32* %6, align 4
  %28 = add nsw i32 %27, 1
  store i32 %28, i32* %6, align 4
  %29 = call i32 @getchar()
  %30 = trunc i32 %29 to i8
  store i8 %30, i8* %4, align 1
  %31 = sext i8 %30 to i32
  %32 = icmp eq i32 %31, 10
  br i1 %32, label %33, label %34

33:                                               ; preds = %21
  br label %38

34:                                               ; preds = %21
  br label %35

35:                                               ; preds = %34
  %36 = load i32, i32* %5, align 4
  %37 = add nsw i32 %36, 1
  store i32 %37, i32* %5, align 4
  br label %21

38:                                               ; preds = %33
  %39 = call noalias i8* @malloc(i64 10) #4
  store i8* %39, i8** %2, align 8
  %40 = call noalias i8* @malloc(i64 10) #4
  store i8* %40, i8** %3, align 8
  %41 = load i8*, i8** %2, align 8
  %42 = call i32 (i8*, ...) bitcast (i32 (...)* @gets to i32 (i8*, ...)*)(i8* %41)
  %43 = load i8*, i8** %3, align 8
  %44 = call i32 (i8*, ...) bitcast (i32 (...)* @gets to i32 (i8*, ...)*)(i8* %43)
  store i32 0, i32* %5, align 4
  br label %45

45:                                               ; preds = %65, %38
  %46 = load i32, i32* %5, align 4
  %47 = load i32, i32* %6, align 4
  %48 = icmp slt i32 %46, %47
  br i1 %48, label %49, label %68

49:                                               ; preds = %45
  %50 = load i32, i32* %5, align 4
  %51 = sext i32 %50 to i64
  %52 = getelementptr inbounds [100 x i8*], [100 x i8*]* %1, i64 0, i64 %51
  %53 = load i8*, i8** %52, align 8
  %54 = load i8*, i8** %2, align 8
  %55 = call i32 @strcmp(i8* %53, i8* %54) #5
  %56 = icmp eq i32 %55, 0
  br i1 %56, label %57, label %64

57:                                               ; preds = %49
  %58 = load i32, i32* %5, align 4
  %59 = sext i32 %58 to i64
  %60 = getelementptr inbounds [100 x i8*], [100 x i8*]* %1, i64 0, i64 %59
  %61 = load i8*, i8** %60, align 8
  %62 = load i8*, i8** %3, align 8
  %63 = call i8* @strcpy(i8* %61, i8* %62) #4
  br label %64

64:                                               ; preds = %57, %49
  br label %65

65:                                               ; preds = %64
  %66 = load i32, i32* %5, align 4
  %67 = add nsw i32 %66, 1
  store i32 %67, i32* %5, align 4
  br label %45

68:                                               ; preds = %45
  store i32 0, i32* %5, align 4
  br label %69

69:                                               ; preds = %86, %68
  %70 = load i32, i32* %5, align 4
  %71 = load i32, i32* %6, align 4
  %72 = icmp slt i32 %70, %71
  br i1 %72, label %73, label %89

73:                                               ; preds = %69
  %74 = load i32, i32* %5, align 4
  %75 = sext i32 %74 to i64
  %76 = getelementptr inbounds [100 x i8*], [100 x i8*]* %1, i64 0, i64 %75
  %77 = load i8*, i8** %76, align 8
  %78 = call i32 (i8*, ...) @printf(i8* getelementptr inbounds ([3 x i8], [3 x i8]* @.str, i64 0, i64 0), i8* %77)
  %79 = load i32, i32* %5, align 4
  %80 = load i32, i32* %6, align 4
  %81 = sub nsw i32 %80, 1
  %82 = icmp ne i32 %79, %81
  br i1 %82, label %83, label %85

83:                                               ; preds = %73
  %84 = call i32 (i8*, ...) @printf(i8* getelementptr inbounds ([2 x i8], [2 x i8]* @.str.1, i64 0, i64 0))
  br label %85

85:                                               ; preds = %83, %73
  br label %86

86:                                               ; preds = %85
  %87 = load i32, i32* %5, align 4
  %88 = add nsw i32 %87, 1
  store i32 %88, i32* %5, align 4
  br label %69

89:                                               ; preds = %69
  ret void
}

; Function Attrs: nounwind
declare dso_local noalias i8* @malloc(i64) #1

declare dso_local i32 @__isoc99_scanf(i8*, ...) #2

declare dso_local i32 @getchar() #2

declare dso_local i32 @gets(...) #2

; Function Attrs: nounwind readonly
declare dso_local i32 @strcmp(i8*, i8*) #3

; Function Attrs: nounwind
declare dso_local i8* @strcpy(i8*, i8*) #1

declare dso_local i32 @printf(i8*, ...) #2


!llvm.module.flags = !{!0}
!llvm.ident = !{!1}

!0 = !{i32 1, !"wchar_size", i32 4}
!1 = !{!"clang version 10.0.0-4ubuntu1 "}
